target datalayout = "e-m:e-p270:32:32-p271:32:32-p272:64:64-i64:64-i128:128-f80:128-n8:16:32:64-S128"
target triple = "x86_64-pc-linux-gnu"

%struct.expert_field = type { i32, i32 }
%struct._e_guid_t = type { i32, i16, i16, [8 x i8] }
%struct._value_string = type { i32, ptr }
%struct._packet_info = type { ptr, ptr, i32, i32, %struct.nstime_t, %struct.nstime_t, %struct.nstime_t, i8, ptr, ptr, ptr, ptr, %struct._address, %struct._address, %struct._address, %struct._address, %struct._address, %struct._address, i32, ptr, i8, [3 x i8], %struct.anon, i32, i32, i32, i32, ptr, i8, ptr, ptr, i16, i16, i32, i32, i16, i32, i32, ptr, ptr, ptr, i8, i8, i16, i16, i16, i32, i16, i16, ptr, ptr, ptr, ptr, ptr, i32, i32 }
%struct.nstime_t = type { i64, i32 }
%struct._address = type { i32, i32, ptr, ptr }
%struct.anon = type { i8, [3 x i8] }
%struct.cba_frame_s = type { ptr, ptr, ptr, i32, i32, i32, i32, i32, i16, [6 x i8], i16, i32, i32, i16, i16, i16 }
%struct._dcerpc_info = type { ptr, i32, i64, i8, i8, i8, i32, i32, i32, i32, i32, i32, i32, i32, ptr, ptr, ptr, ptr, %struct.anon.0 }
%struct.anon.0 = type { i8, ptr, ptr, ptr, i8 }
%struct._dcerpc_call_value = type { %struct._e_guid_t, i16, %struct._e_guid_t, i16, i32, %struct.nstime_t, i32, i32, ptr, ptr, ptr, i32 }
%struct._proto_node = type { ptr, ptr, ptr, ptr, ptr, ptr, ptr }
%struct.field_info = type { ptr, i32, i32, i32, i32, i32, i32, ptr, ptr, ptr, i32, i32 }
%struct.server_frame_call_s = type { i32, ptr }

@hf_cba_acco_srt_call = internal global i32 0, align 4
@ei_cba_acco_disconnect = internal global %struct.expert_field zeroinitializer, align 4
@proto_ICBAAccoMgt = internal global i32 0, align 4
@dcom_hresult_vals = external constant [0 x %struct._value_string], align 8
@.str.259 = private unnamed_addr constant [17 x i8] c"Unknown (0x%08x)\00", align 1
@.str.261 = private unnamed_addr constant [7 x i8] c" -> %s\00", align 1
@.str.338 = private unnamed_addr constant [59 x i8] c"cba_frame_disconnect#%u: frame already disconnected in #%u\00", align 1

; Function Attrs: null_pointer_is_valid sspstrong uwtable
define internal void @cba_frame_disconnect(ptr noundef %0, ptr noundef %1) #0 {
  %3 = alloca ptr, align 8
  %4 = alloca ptr, align 8
  store ptr %0, ptr %3, align 8
  store ptr %1, ptr %4, align 8
  %5 = load ptr, ptr %4, align 8
  %6 = getelementptr inbounds nuw %struct.cba_frame_s, ptr %5, i32 0, i32 4
  %7 = load i32, ptr %6, align 4
  %8 = icmp eq i32 %7, 0
  br i1 %8, label %9, label %15

9:                                                ; preds = %2
  %10 = load ptr, ptr %3, align 8
  %11 = getelementptr inbounds nuw %struct._packet_info, ptr %10, i32 0, i32 3
  %12 = load i32, ptr %11, align 4
  %13 = load ptr, ptr %4, align 8
  %14 = getelementptr inbounds nuw %struct.cba_frame_s, ptr %13, i32 0, i32 4
  store i32 %12, ptr %14, align 4
  br label %15

15:                                               ; preds = %9, %2
  %16 = load ptr, ptr %4, align 8
  %17 = getelementptr inbounds nuw %struct.cba_frame_s, ptr %16, i32 0, i32 4
  %18 = load i32, ptr %17, align 4
  %19 = load ptr, ptr %3, align 8
  %20 = getelementptr inbounds nuw %struct._packet_info, ptr %19, i32 0, i32 3
  %21 = load i32, ptr %20, align 4
  %22 = icmp ne i32 %18, %21
  br i1 %22, label %23, label %32

23:                                               ; preds = %15
  %24 = load ptr, ptr %3, align 8
  %25 = load ptr, ptr %3, align 8
  %26 = getelementptr inbounds nuw %struct._packet_info, ptr %25, i32 0, i32 3
  %27 = load i32, ptr %26, align 4
  %28 = load ptr, ptr %4, align 8
  %29 = getelementptr inbounds nuw %struct.cba_frame_s, ptr %28, i32 0, i32 4
  %30 = load i32, ptr %29, align 4
  %31 = call ptr (ptr, ptr, ptr, ptr, ...) @expert_add_info_format(ptr noundef %24, ptr noundef null, ptr noundef @ei_cba_acco_disconnect, ptr noundef @.str.338, i32 noundef %27, i32 noundef %30)
  br label %32

32:                                               ; preds = %23, %15
  ret void
}

; Function Attrs: inlinehint nounwind null_pointer_is_valid sspstrong uwtable
define internal void @proto_item_set_generated(ptr noundef %0) #10 {
  %2 = alloca ptr, align 8
  store ptr %0, ptr %2, align 8
  %3 = load ptr, ptr %2, align 8
  %4 = icmp ne ptr %3, null
  br i1 %4, label %5, label %24

5:                                                ; preds = %1
  br label %6

6:                                                ; preds = %5
  %7 = load ptr, ptr %2, align 8
  %8 = getelementptr inbounds nuw %struct._proto_node, ptr %7, i32 0, i32 5
  %9 = load ptr, ptr %8, align 8
  %10 = icmp ne ptr %9, null
  br i1 %10, label %11, label %22

11:                                               ; preds = %6
  %12 = load ptr, ptr %2, align 8
  %13 = getelementptr inbounds nuw %struct._proto_node, ptr %12, i32 0, i32 5
  %14 = load ptr, ptr %13, align 8
  %15 = getelementptr inbounds nuw %struct.field_info, ptr %14, i32 0, i32 6
  %16 = load i32, ptr %15, align 4
  %17 = or i32 %16, 2
  %18 = load ptr, ptr %2, align 8
  %19 = getelementptr inbounds nuw %struct._proto_node, ptr %18, i32 0, i32 5
  %20 = load ptr, ptr %19, align 8
  %21 = getelementptr inbounds nuw %struct.field_info, ptr %20, i32 0, i32 6
  store i32 %17, ptr %21, align 4
  br label %22

22:                                               ; preds = %11, %6
  br label %23

23:                                               ; preds = %22
  br label %24

24:                                               ; preds = %23, %1
  ret void
}

; Function Attrs: null_pointer_is_valid sspstrong uwtable
define internal i32 @dissect_ICBAAccoServerSRT_DisconnectCR_resp(ptr noundef %0, i32 noundef %1, ptr noundef %2, ptr noundef %3, ptr noundef %4, ptr noundef %5) #0 {
  %7 = alloca ptr, align 8
  %8 = alloca i32, align 4
  %9 = alloca ptr, align 8
  %10 = alloca ptr, align 8
  %11 = alloca ptr, align 8
  %12 = alloca ptr, align 8
  %13 = alloca i32, align 4
  %14 = alloca i32, align 4
  %15 = alloca i32, align 4
  %16 = alloca i32, align 4
  %17 = alloca i32, align 4
  %18 = alloca ptr, align 8
  %19 = alloca ptr, align 8
  %20 = alloca ptr, align 8
  store ptr %0, ptr %7, align 8
  store i32 %1, ptr %8, align 4
  store ptr %2, ptr %9, align 8
  store ptr %3, ptr %10, align 8
  store ptr %4, ptr %11, align 8
  store ptr %5, ptr %12, align 8
  call void @llvm.lifetime.start.p0(i64 4, ptr %13) #12
  call void @llvm.lifetime.start.p0(i64 4, ptr %14) #12
  call void @llvm.lifetime.start.p0(i64 4, ptr %15) #12
  store i32 0, ptr %15, align 4
  call void @llvm.lifetime.start.p0(i64 4, ptr %16) #12
  call void @llvm.lifetime.start.p0(i64 4, ptr %17) #12
  call void @llvm.lifetime.start.p0(i64 8, ptr %18) #12
  call void @llvm.lifetime.start.p0(i64 8, ptr %19) #12
  call void @llvm.lifetime.start.p0(i64 8, ptr %20) #12
  %21 = load ptr, ptr %11, align 8
  %22 = getelementptr inbounds nuw %struct._dcerpc_info, ptr %21, i32 0, i32 14
  %23 = load ptr, ptr %22, align 8
  %24 = getelementptr inbounds nuw %struct._dcerpc_call_value, ptr %23, i32 0, i32 9
  %25 = load ptr, ptr %24, align 8
  store ptr %25, ptr %20, align 8
  %26 = load ptr, ptr %7, align 8
  %27 = load i32, ptr %8, align 4
  %28 = load ptr, ptr %9, align 8
  %29 = load ptr, ptr %10, align 8
  %30 = load ptr, ptr %11, align 8
  %31 = load ptr, ptr %12, align 8
  %32 = call i32 @dissect_dcom_that(ptr noundef %26, i32 noundef %27, ptr noundef %28, ptr noundef %29, ptr noundef %30, ptr noundef %31)
  store i32 %32, ptr %8, align 4
  %33 = load ptr, ptr %10, align 8
  %34 = load i32, ptr @hf_cba_acco_srt_call, align 4
  %35 = load ptr, ptr %7, align 8
  %36 = load i32, ptr %8, align 4
  %37 = call ptr @proto_tree_add_boolean(ptr noundef %33, i32 noundef %34, ptr noundef %35, i32 noundef %36, i32 noundef 0, i64 noundef 0)
  store ptr %37, ptr %19, align 8
  %38 = load ptr, ptr %19, align 8
  call void @proto_item_set_generated(ptr noundef %38)
  %39 = load ptr, ptr %9, align 8
  %40 = getelementptr inbounds nuw %struct._packet_info, ptr %39, i32 0, i32 51
  %41 = load ptr, ptr %40, align 8
  %42 = load ptr, ptr %9, align 8
  %43 = load i32, ptr @proto_ICBAAccoMgt, align 4
  call void @p_add_proto_data(ptr noundef %41, ptr noundef %42, i32 noundef %43, i32 noundef 0, ptr noundef inttoptr (i64 3 to ptr))
  %44 = load ptr, ptr %7, align 8
  %45 = load i32, ptr %8, align 4
  %46 = load ptr, ptr %9, align 8
  %47 = load ptr, ptr %10, align 8
  %48 = load ptr, ptr %11, align 8
  %49 = load ptr, ptr %12, align 8
  %50 = call i32 @dissect_dcom_dcerpc_pointer(ptr noundef %44, i32 noundef %45, ptr noundef %46, ptr noundef %47, ptr noundef %48, ptr noundef %49, ptr noundef %14)
  store i32 %50, ptr %8, align 4
  %51 = load i32, ptr %14, align 4
  %52 = icmp ne i32 %51, 0
  br i1 %52, label %53, label %102

53:                                               ; preds = %6
  %54 = load ptr, ptr %7, align 8
  %55 = load i32, ptr %8, align 4
  %56 = load ptr, ptr %9, align 8
  %57 = load ptr, ptr %10, align 8
  %58 = load ptr, ptr %11, align 8
  %59 = load ptr, ptr %12, align 8
  %60 = call i32 @dissect_dcom_dcerpc_array_size(ptr noundef %54, i32 noundef %55, ptr noundef %56, ptr noundef %57, ptr noundef %58, ptr noundef %59, ptr noundef %15)
  store i32 %60, ptr %8, align 4
  store i32 1, ptr %16, align 4
  %61 = load i32, ptr %15, align 4
  store i32 %61, ptr %17, align 4
  br label %62

62:                                               ; preds = %98, %53
  %63 = load i32, ptr %17, align 4
  %64 = add i32 %63, -1
  store i32 %64, ptr %17, align 4
  %65 = icmp ne i32 %63, 0
  br i1 %65, label %66, label %101

66:                                               ; preds = %62
  %67 = load ptr, ptr %7, align 8
  %68 = load i32, ptr %8, align 4
  %69 = load ptr, ptr %9, align 8
  %70 = load ptr, ptr %10, align 8
  %71 = load ptr, ptr %11, align 8
  %72 = load ptr, ptr %12, align 8
  %73 = load i32, ptr %16, align 4
  %74 = call i32 @dissect_dcom_indexed_HRESULT(ptr noundef %67, i32 noundef %68, ptr noundef %69, ptr noundef %70, ptr noundef %71, ptr noundef %72, ptr noundef %13, i32 noundef %73)
  store i32 %74, ptr %8, align 4
  %75 = load ptr, ptr %20, align 8
  %76 = icmp ne ptr %75, null
  br i1 %76, label %77, label %98

77:                                               ; preds = %66
  %78 = load i32, ptr %16, align 4
  %79 = load ptr, ptr %20, align 8
  %80 = getelementptr inbounds nuw %struct.server_frame_call_s, ptr %79, i32 0, i32 0
  %81 = load i32, ptr %80, align 8
  %82 = icmp ule i32 %78, %81
  br i1 %82, label %83, label %98

83:                                               ; preds = %77
  %84 = load ptr, ptr %20, align 8
  %85 = getelementptr inbounds nuw %struct.server_frame_call_s, ptr %84, i32 0, i32 1
  %86 = load ptr, ptr %85, align 8
  %87 = load i32, ptr %16, align 4
  %88 = sub i32 %87, 1
  %89 = zext i32 %88 to i64
  %90 = getelementptr ptr, ptr %86, i64 %89
  %91 = load ptr, ptr %90, align 8
  store ptr %91, ptr %18, align 8
  %92 = load ptr, ptr %18, align 8
  %93 = icmp ne ptr %92, null
  br i1 %93, label %94, label %97

94:                                               ; preds = %83
  %95 = load ptr, ptr %9, align 8
  %96 = load ptr, ptr %18, align 8
  call void @cba_frame_disconnect(ptr noundef %95, ptr noundef %96)
  br label %97

97:                                               ; preds = %94, %83
  br label %98

98:                                               ; preds = %97, %77, %66
  %99 = load i32, ptr %16, align 4
  %100 = add i32 %99, 1
  store i32 %100, ptr %16, align 4
  br label %62, !llvm.loop !46

101:                                              ; preds = %62
  br label %102

102:                                              ; preds = %101, %6
  %103 = load ptr, ptr %7, align 8
  %104 = load i32, ptr %8, align 4
  %105 = load ptr, ptr %9, align 8
  %106 = load ptr, ptr %10, align 8
  %107 = load ptr, ptr %11, align 8
  %108 = load ptr, ptr %12, align 8
  %109 = call i32 @dissect_dcom_HRESULT(ptr noundef %103, i32 noundef %104, ptr noundef %105, ptr noundef %106, ptr noundef %107, ptr noundef %108, ptr noundef %13)
  store i32 %109, ptr %8, align 4
  %110 = load ptr, ptr %9, align 8
  %111 = getelementptr inbounds nuw %struct._packet_info, ptr %110, i32 0, i32 1
  %112 = load ptr, ptr %111, align 8
  %113 = load i32, ptr %13, align 4
  %114 = call ptr @val_to_str(i32 noundef %113, ptr noundef @dcom_hresult_vals, ptr noundef @.str.259)
  call void (ptr, i32, ptr, ...) @col_append_fstr(ptr noundef %112, i32 noundef 25, ptr noundef @.str.261, ptr noundef %114)
  %115 = load i32, ptr %8, align 4
  call void @llvm.lifetime.end.p0(i64 8, ptr %20) #12
  call void @llvm.lifetime.end.p0(i64 8, ptr %19) #12
  call void @llvm.lifetime.end.p0(i64 8, ptr %18) #12
  call void @llvm.lifetime.end.p0(i64 4, ptr %17) #12
  call void @llvm.lifetime.end.p0(i64 4, ptr %16) #12
  call void @llvm.lifetime.end.p0(i64 4, ptr %15) #12
  call void @llvm.lifetime.end.p0(i64 4, ptr %14) #12
  call void @llvm.lifetime.end.p0(i64 4, ptr %13) #12
  ret i32 %115
}