; Function Attrs: null_pointer_is_valid sspstrong uwtable
define internal i32 @dissect_ICBAAccoServerSRT_DisconnectCR_resp(ptr noundef %0, i32 noundef %1, ptr noundef %2, ptr noundef %3, ptr noundef %4, ptr noundef %5) #0 {
  %7 = alloca i32, align 4
  %8 = alloca i32, align 4
  %9 = alloca i32, align 4
  call void @llvm.lifetime.start.p0(i64 4, ptr nonnull %7) #12
  call void @llvm.lifetime.start.p0(i64 4, ptr nonnull %8) #12
  call void @llvm.lifetime.start.p0(i64 4, ptr nonnull %9) #12
  store i32 0, ptr %9, align 4
  %10 = getelementptr inbounds nuw i8, ptr %4, i64 64
  %11 = load ptr, ptr %10, align 8
  %12 = getelementptr inbounds nuw i8, ptr %11, i64 80
  %13 = load ptr, ptr %12, align 8
  %.fr = freeze ptr %13
  %14 = tail call i32 @dissect_dcom_that(ptr noundef %0, i32 noundef %1, ptr noundef %2, ptr noundef %3, ptr noundef %4, ptr noundef %5)
  %15 = load i32, ptr @hf_cba_acco_srt_call, align 4
  %16 = tail call ptr @proto_tree_add_boolean(ptr noundef %3, i32 noundef %15, ptr noundef %0, i32 noundef %14, i32 noundef 0, i64 noundef 0)
  %.not.i = icmp eq ptr %16, null
  br i1 %.not.i, label %proto_item_set_generated.exit, label %17

17:                                               ; preds = %6
  %18 = getelementptr inbounds nuw i8, ptr %16, i64 40
  %19 = load ptr, ptr %18, align 8
  %.not5.i = icmp eq ptr %19, null
  br i1 %.not5.i, label %proto_item_set_generated.exit, label %20

20:                                               ; preds = %17
  %21 = getelementptr inbounds nuw i8, ptr %19, i64 28
  %22 = load i32, ptr %21, align 4
  %23 = or i32 %22, 2
  store i32 %23, ptr %21, align 4
  br label %proto_item_set_generated.exit

proto_item_set_generated.exit:                    ; preds = %6, %17, %20
  %24 = getelementptr inbounds nuw i8, ptr %2, i64 408
  %25 = load ptr, ptr %24, align 8
  %26 = load i32, ptr @proto_ICBAAccoMgt, align 4
  tail call void @p_add_proto_data(ptr noundef %25, ptr noundef %2, i32 noundef %26, i32 noundef 0, ptr noundef nonnull inttoptr (i64 3 to ptr))
  %27 = call i32 @dissect_dcom_dcerpc_pointer(ptr noundef %0, i32 noundef %14, ptr noundef %2, ptr noundef %3, ptr noundef %4, ptr noundef %5, ptr noundef nonnull %8)
  %28 = load i32, ptr %8, align 4
  %.not = icmp eq i32 %28, 0
  br i1 %.not, label %.loopexit, label %29

29:                                               ; preds = %proto_item_set_generated.exit
  %30 = call i32 @dissect_dcom_dcerpc_array_size(ptr noundef %0, i32 noundef %27, ptr noundef %2, ptr noundef %3, ptr noundef %4, ptr noundef %5, ptr noundef nonnull %9)
  %31 = load i32, ptr %9, align 4
  %.not5358 = icmp eq i32 %31, 0
  br i1 %.not5358, label %.loopexit, label %.lr.ph

.lr.ph:                                           ; preds = %29
  %32 = add i32 %31, -1
  %.not54 = icmp eq ptr %.fr, null
  %33 = getelementptr inbounds nuw i8, ptr %.fr, i64 8
  %34 = getelementptr inbounds nuw i8, ptr %2, i64 20
  br i1 %.not54, label %cba_frame_disconnect.exit.us, label %.lr.ph.split

cba_frame_disconnect.exit.us:                     ; preds = %.lr.ph, %cba_frame_disconnect.exit.us
  %35 = phi i32 [ %38, %cba_frame_disconnect.exit.us ], [ %32, %.lr.ph ]
  %.160.us = phi i32 [ %36, %cba_frame_disconnect.exit.us ], [ %30, %.lr.ph ]
  %.04959.us = phi i32 [ %37, %cba_frame_disconnect.exit.us ], [ 1, %.lr.ph ]
  %36 = call i32 @dissect_dcom_indexed_HRESULT(ptr noundef %0, i32 noundef %.160.us, ptr noundef %2, ptr noundef %3, ptr noundef %4, ptr noundef %5, ptr noundef nonnull %7, i32 noundef %.04959.us)
  %37 = add i32 %.04959.us, 1
  %38 = add i32 %35, -1
  %.not53.us = icmp eq i32 %35, 0
  br i1 %.not53.us, label %.loopexit, label %cba_frame_disconnect.exit.us, !llvm.loop !46

.lr.ph.split:                                     ; preds = %.lr.ph, %cba_frame_disconnect.exit
  %indvars.iv = phi i64 [ %indvars.iv.next, %cba_frame_disconnect.exit ], [ 1, %.lr.ph ]
  %39 = phi i32 [ %57, %cba_frame_disconnect.exit ], [ %32, %.lr.ph ]
  %.160 = phi i32 [ %41, %cba_frame_disconnect.exit ], [ %30, %.lr.ph ]
  %40 = trunc nuw i64 %indvars.iv to i32
  %41 = call i32 @dissect_dcom_indexed_HRESULT(ptr noundef %0, i32 noundef %.160, ptr noundef %2, ptr noundef %3, ptr noundef %4, ptr noundef %5, ptr noundef nonnull %7, i32 noundef %40)
  %42 = load i32, ptr %.fr, align 8
  %43 = zext i32 %42 to i64
  %.not55 = icmp samesign ugt i64 %indvars.iv, %43
  br i1 %.not55, label %cba_frame_disconnect.exit, label %44

44:                                               ; preds = %.lr.ph.split
  %45 = load ptr, ptr %33, align 8
  %46 = getelementptr ptr, ptr %45, i64 %indvars.iv
  %47 = getelementptr i8, ptr %46, i64 -8
  %48 = load ptr, ptr %47, align 8
  %.not56 = icmp eq ptr %48, null
  br i1 %.not56, label %cba_frame_disconnect.exit, label %49

49:                                               ; preds = %44
  %50 = getelementptr inbounds nuw i8, ptr %48, i64 28
  %51 = load i32, ptr %50, align 4
  %52 = icmp eq i32 %51, 0
  %53 = load i32, ptr %34, align 4
  br i1 %52, label %.thread.i, label %54

.thread.i:                                        ; preds = %49
  store i32 %53, ptr %50, align 4
  br label %cba_frame_disconnect.exit

54:                                               ; preds = %49
  %.not.i57 = icmp eq i32 %51, %53
  br i1 %.not.i57, label %cba_frame_disconnect.exit, label %55

55:                                               ; preds = %54
  %56 = call ptr (ptr, ptr, ptr, ptr, ...) @expert_add_info_format(ptr noundef %2, ptr noundef null, ptr noundef nonnull @ei_cba_acco_disconnect, ptr noundef nonnull @.str.338, i32 noundef %53, i32 noundef %51)
  br label %cba_frame_disconnect.exit

cba_frame_disconnect.exit:                        ; preds = %55, %54, %.thread.i, %44, %.lr.ph.split
  %indvars.iv.next = add nuw nsw i64 %indvars.iv, 1
  %57 = add i32 %39, -1
  %.not53 = icmp eq i32 %39, 0
  br i1 %.not53, label %.loopexit, label %.lr.ph.split, !llvm.loop !46

.loopexit:                                        ; preds = %cba_frame_disconnect.exit, %cba_frame_disconnect.exit.us, %29, %proto_item_set_generated.exit
  %.0 = phi i32 [ %27, %proto_item_set_generated.exit ], [ %30, %29 ], [ %36, %cba_frame_disconnect.exit.us ], [ %41, %cba_frame_disconnect.exit ]
  %58 = call i32 @dissect_dcom_HRESULT(ptr noundef %0, i32 noundef %.0, ptr noundef %2, ptr noundef %3, ptr noundef %4, ptr noundef %5, ptr noundef nonnull %7)
  %59 = getelementptr inbounds nuw i8, ptr %2, i64 8
  %60 = load ptr, ptr %59, align 8
  %61 = load i32, ptr %7, align 4
  %62 = call ptr @val_to_str(i32 noundef %61, ptr noundef nonnull @dcom_hresult_vals, ptr noundef nonnull @.str.259)
  call void (ptr, i32, ptr, ...) @col_append_fstr(ptr noundef %60, i32 noundef 25, ptr noundef nonnull @.str.261, ptr noundef %62)
  call void @llvm.lifetime.end.p0(i64 4, ptr nonnull %9) #12
  call void @llvm.lifetime.end.p0(i64 4, ptr nonnull %8) #12
  call void @llvm.lifetime.end.p0(i64 4, ptr nonnull %7) #12
  ret i32 %58
}